target datalayout = "e-m:e-p270:32:32-p271:32:32-p272:64:64-i64:64-i128:128-f80:128-n8:16:32:64-S128"
target triple = "x86_64-pc-linux-gnu"

%"class.cv::Size_" = type { i32, i32 }
%"class.cvtest::ArrayTest" = type { %"class.cvtest::BaseTest", i8, i8, i8, i8, i32, i32, %"class.std::vector", %"class.std::vector.3", [4 x float] }
%"class.cvtest::BaseTest" = type { ptr, i32, %"class.std::__cxx11::basic_string", ptr }
%"class.std::__cxx11::basic_string" = type { %"struct.std::__cxx11::basic_string<char>::_Alloc_hider", i64, %union.anon }
%"struct.std::__cxx11::basic_string<char>::_Alloc_hider" = type { ptr }
%union.anon = type { i64, [8 x i8] }
%"class.std::vector" = type { %"struct.std::_Vector_base" }
%"struct.std::_Vector_base" = type { %"struct.std::_Vector_base<std::vector<void *>, std::allocator<std::vector<void *>>>::_Vector_impl" }
%"struct.std::_Vector_base<std::vector<void *>, std::allocator<std::vector<void *>>>::_Vector_impl" = type { %"struct.std::_Vector_base<std::vector<void *>, std::allocator<std::vector<void *>>>::_Vector_impl_data" }
%"struct.std::_Vector_base<std::vector<void *>, std::allocator<std::vector<void *>>>::_Vector_impl_data" = type { ptr, ptr, ptr }
%"class.std::vector.3" = type { %"struct.std::_Vector_base.4" }
%"struct.std::_Vector_base.4" = type { %"struct.std::_Vector_base<std::vector<cv::Mat>, std::allocator<std::vector<cv::Mat>>>::_Vector_impl" }
%"struct.std::_Vector_base<std::vector<cv::Mat>, std::allocator<std::vector<cv::Mat>>>::_Vector_impl" = type { %"struct.std::_Vector_base<std::vector<cv::Mat>, std::allocator<std::vector<cv::Mat>>>::_Vector_impl_data" }
%"struct.std::_Vector_base<std::vector<cv::Mat>, std::allocator<std::vector<cv::Mat>>>::_Vector_impl_data" = type { ptr, ptr, ptr }
%"class.std::vector.8" = type { %"struct.std::_Vector_base.9" }
%"struct.std::_Vector_base.9" = type { %"struct.std::_Vector_base<void *, std::allocator<void *>>::_Vector_impl" }
%"struct.std::_Vector_base<void *, std::allocator<void *>>::_Vector_impl" = type { %"struct.std::_Vector_base<void *, std::allocator<void *>>::_Vector_impl_data" }
%"struct.std::_Vector_base<void *, std::allocator<void *>>::_Vector_impl_data" = type { ptr, ptr, ptr }
%"struct.std::_Vector_base.19" = type { %"struct.std::_Vector_base<std::vector<cv::Size_<int>>, std::allocator<std::vector<cv::Size_<int>>>>::_Vector_impl" }
%"struct.std::_Vector_base<std::vector<cv::Size_<int>>, std::allocator<std::vector<cv::Size_<int>>>>::_Vector_impl" = type { %"struct.std::_Vector_base<std::vector<cv::Size_<int>>, std::allocator<std::vector<cv::Size_<int>>>>::_Vector_impl_data" }
%"struct.std::_Vector_base<std::vector<cv::Size_<int>>, std::allocator<std::vector<cv::Size_<int>>>>::_Vector_impl_data" = type { ptr, ptr, ptr }
%"class.std::vector.23" = type { %"struct.std::_Vector_base.24" }
%"struct.std::_Vector_base.24" = type { %"struct.std::_Vector_base<cv::Size_<int>, std::allocator<cv::Size_<int>>>::_Vector_impl" }
%"struct.std::_Vector_base<cv::Size_<int>, std::allocator<cv::Size_<int>>>::_Vector_impl" = type { %"struct.std::_Vector_base<cv::Size_<int>, std::allocator<cv::Size_<int>>>::_Vector_impl_data" }
%"struct.std::_Vector_base<cv::Size_<int>, std::allocator<cv::Size_<int>>>::_Vector_impl_data" = type { ptr, ptr, ptr }
%"struct.std::_Vector_base.29" = type { %"struct.std::_Vector_base<std::vector<int>, std::allocator<std::vector<int>>>::_Vector_impl" }
%"struct.std::_Vector_base<std::vector<int>, std::allocator<std::vector<int>>>::_Vector_impl" = type { %"struct.std::_Vector_base<std::vector<int>, std::allocator<std::vector<int>>>::_Vector_impl_data" }
%"struct.std::_Vector_base<std::vector<int>, std::allocator<std::vector<int>>>::_Vector_impl_data" = type { ptr, ptr, ptr }
%"class.std::vector.33" = type { %"struct.std::_Vector_base.34" }
%"struct.std::_Vector_base.34" = type { %"struct.std::_Vector_base<int, std::allocator<int>>::_Vector_impl" }
%"struct.std::_Vector_base<int, std::allocator<int>>::_Vector_impl" = type { %"struct.std::_Vector_base<int, std::allocator<int>>::_Vector_impl_data" }
%"struct.std::_Vector_base<int, std::allocator<int>>::_Vector_impl_data" = type { ptr, ptr, ptr }
%"class.cv::RNG" = type { i64 }

; Function Attrs: inlinehint mustprogress nounwind uwtable
define linkonce_odr hidden noundef i32 @_ZN2cv3RNG4nextEv(ptr noundef nonnull align 8 dereferenceable(8) %0) #4 comdat align 2 {
  %2 = alloca ptr, align 8
  store ptr %0, ptr %2, align 8, !tbaa !80
  %3 = load ptr, ptr %2, align 8
  %4 = getelementptr inbounds nuw %"class.cv::RNG", ptr %3, i32 0, i32 0
  %5 = load i64, ptr %4, align 8, !tbaa !177
  %6 = trunc i64 %5 to i32
  %7 = zext i32 %6 to i64
  %8 = mul i64 %7, 4164903690
  %9 = getelementptr inbounds nuw %"class.cv::RNG", ptr %3, i32 0, i32 0
  %10 = load i64, ptr %9, align 8, !tbaa !177
  %11 = lshr i64 %10, 32
  %12 = trunc i64 %11 to i32
  %13 = zext i32 %12 to i64
  %14 = add i64 %8, %13
  %15 = getelementptr inbounds nuw %"class.cv::RNG", ptr %3, i32 0, i32 0
  store i64 %14, ptr %15, align 8, !tbaa !177
  %16 = getelementptr inbounds nuw %"class.cv::RNG", ptr %3, i32 0, i32 0
  %17 = load i64, ptr %16, align 8, !tbaa !177
  %18 = trunc i64 %17 to i32
  ret i32 %18
}

; Function Attrs: alwaysinline mustprogress nounwind uwtable
define internal noundef i32 @_ZL14_mm_cvtsd_si32Dv2_d(<2 x double> noundef %0) #16 {
  %2 = alloca <2 x double>, align 16
  store <2 x double> %0, ptr %2, align 16, !tbaa !64
  %3 = load <2 x double>, ptr %2, align 16, !tbaa !64
  %4 = call i32 @llvm.x86.sse2.cvtsd2si(<2 x double> %3)
  ret i32 %4
}

; Function Attrs: alwaysinline mustprogress nounwind uwtable
define internal noundef <2 x double> @_ZL10_mm_set_sdd(double noundef %0) #16 {
  %2 = alloca double, align 8
  %3 = alloca <2 x double>, align 16
  store double %0, ptr %2, align 8, !tbaa !62
  %4 = load double, ptr %2, align 8, !tbaa !62
  %5 = insertelement <2 x double> poison, double %4, i32 0
  %6 = insertelement <2 x double> %5, double 0.000000e+00, i32 1
  store <2 x double> %6, ptr %3, align 16, !tbaa !64
  %7 = load <2 x double>, ptr %3, align 16, !tbaa !64
  ret <2 x double> %7
}

; Function Attrs: inlinehint mustprogress uwtable
define linkonce_odr hidden noundef double @_ZN2cv3RNGcvdEv(ptr noundef nonnull align 8 dereferenceable(8) %0) #11 comdat align 2 {
  %2 = alloca ptr, align 8
  %3 = alloca i32, align 4
  store ptr %0, ptr %2, align 8, !tbaa !80
  %4 = load ptr, ptr %2, align 8
  call void @llvm.lifetime.start.p0(i64 4, ptr %3) #3
  %5 = call noundef i32 @_ZN2cv3RNG4nextEv(ptr noundef nonnull align 8 dereferenceable(8) %4)
  store i32 %5, ptr %3, align 4, !tbaa !8
  %6 = load i32, ptr %3, align 4, !tbaa !8
  %7 = zext i32 %6 to i64
  %8 = shl i64 %7, 32
  %9 = call noundef i32 @_ZN2cv3RNG4nextEv(ptr noundef nonnull align 8 dereferenceable(8) %4)
  %10 = zext i32 %9 to i64
  %11 = or i64 %8, %10
  %12 = uitofp i64 %11 to double
  %13 = fmul double %12, 0x3BF0000000000000
  call void @llvm.lifetime.end.p0(i64 4, ptr %3) #3
  ret double %13
}

; Function Attrs: mustprogress nounwind uwtable
define linkonce_odr hidden noundef nonnull align 4 dereferenceable(4) ptr @_ZNSt6vectorIiSaIiEEixEm(ptr noundef nonnull align 8 dereferenceable(24) %0, i64 noundef %1) #7 comdat align 2 {
  %3 = alloca ptr, align 8
  %4 = alloca i64, align 8
  store ptr %0, ptr %3, align 8, !tbaa !94
  store i64 %1, ptr %4, align 8, !tbaa !46
  %5 = load ptr, ptr %3, align 8
  %6 = getelementptr inbounds nuw %"struct.std::_Vector_base.34", ptr %5, i32 0, i32 0
  %7 = getelementptr inbounds nuw %"struct.std::_Vector_base<int, std::allocator<int>>::_Vector_impl_data", ptr %6, i32 0, i32 0
  %8 = load ptr, ptr %7, align 8, !tbaa !95
  %9 = load i64, ptr %4, align 8, !tbaa !46
  %10 = getelementptr inbounds nuw i32, ptr %8, i64 %9
  ret ptr %10
}

; Function Attrs: mustprogress nounwind uwtable
define linkonce_odr hidden noundef nonnull align 8 dereferenceable(24) ptr @_ZNSt6vectorIS_IiSaIiEESaIS1_EEixEm(ptr noundef nonnull align 8 dereferenceable(24) %0, i64 noundef %1) #7 comdat align 2 {
  %3 = alloca ptr, align 8
  %4 = alloca i64, align 8
  store ptr %0, ptr %3, align 8, !tbaa !78
  store i64 %1, ptr %4, align 8, !tbaa !46
  %5 = load ptr, ptr %3, align 8
  %6 = getelementptr inbounds nuw %"struct.std::_Vector_base.29", ptr %5, i32 0, i32 0
  %7 = getelementptr inbounds nuw %"struct.std::_Vector_base<std::vector<int>, std::allocator<std::vector<int>>>::_Vector_impl_data", ptr %6, i32 0, i32 0
  %8 = load ptr, ptr %7, align 8, !tbaa !91
  %9 = load i64, ptr %4, align 8, !tbaa !46
  %10 = getelementptr inbounds nuw %"class.std::vector.33", ptr %8, i64 %9
  ret ptr %10
}

; Function Attrs: mustprogress nounwind uwtable
define linkonce_odr hidden noundef nonnull align 4 dereferenceable(8) ptr @_ZNSt6vectorIN2cv5Size_IiEESaIS2_EEixEm(ptr noundef nonnull align 8 dereferenceable(24) %0, i64 noundef %1) #7 comdat align 2 {
  %3 = alloca ptr, align 8
  %4 = alloca i64, align 8
  store ptr %0, ptr %3, align 8, !tbaa !88
  store i64 %1, ptr %4, align 8, !tbaa !46
  %5 = load ptr, ptr %3, align 8
  %6 = getelementptr inbounds nuw %"struct.std::_Vector_base.24", ptr %5, i32 0, i32 0
  %7 = getelementptr inbounds nuw %"struct.std::_Vector_base<cv::Size_<int>, std::allocator<cv::Size_<int>>>::_Vector_impl_data", ptr %6, i32 0, i32 0
  %8 = load ptr, ptr %7, align 8, !tbaa !89
  %9 = load i64, ptr %4, align 8, !tbaa !46
  %10 = getelementptr inbounds nuw %"class.cv::Size_", ptr %8, i64 %9
  ret ptr %10
}

; Function Attrs: mustprogress nounwind uwtable
define linkonce_odr hidden noundef nonnull align 8 dereferenceable(24) ptr @_ZNSt6vectorIS_IN2cv5Size_IiEESaIS2_EESaIS4_EEixEm(ptr noundef nonnull align 8 dereferenceable(24) %0, i64 noundef %1) #7 comdat align 2 {
  %3 = alloca ptr, align 8
  %4 = alloca i64, align 8
  store ptr %0, ptr %3, align 8, !tbaa !76
  store i64 %1, ptr %4, align 8, !tbaa !46
  %5 = load ptr, ptr %3, align 8
  %6 = getelementptr inbounds nuw %"struct.std::_Vector_base.19", ptr %5, i32 0, i32 0
  %7 = getelementptr inbounds nuw %"struct.std::_Vector_base<std::vector<cv::Size_<int>>, std::allocator<std::vector<cv::Size_<int>>>>::_Vector_impl_data", ptr %6, i32 0, i32 0
  %8 = load ptr, ptr %7, align 8, !tbaa !85
  %9 = load i64, ptr %4, align 8, !tbaa !46
  %10 = getelementptr inbounds nuw %"class.std::vector.23", ptr %8, i64 %9
  ret ptr %10
}

; Function Attrs: mustprogress nounwind uwtable
define linkonce_odr hidden noundef i64 @_ZNKSt6vectorIPvSaIS0_EE4sizeEv(ptr noundef nonnull align 8 dereferenceable(24) %0) #7 comdat align 2 {
  %2 = alloca ptr, align 8
  store ptr %0, ptr %2, align 8, !tbaa !54
  %3 = load ptr, ptr %2, align 8
  %4 = getelementptr inbounds nuw %"struct.std::_Vector_base.9", ptr %3, i32 0, i32 0
  %5 = getelementptr inbounds nuw %"struct.std::_Vector_base<void *, std::allocator<void *>>::_Vector_impl_data", ptr %4, i32 0, i32 1
  %6 = load ptr, ptr %5, align 8, !tbaa !55
  %7 = getelementptr inbounds nuw %"struct.std::_Vector_base.9", ptr %3, i32 0, i32 0
  %8 = getelementptr inbounds nuw %"struct.std::_Vector_base<void *, std::allocator<void *>>::_Vector_impl_data", ptr %7, i32 0, i32 0
  %9 = load ptr, ptr %8, align 8, !tbaa !58
  %10 = ptrtoint ptr %6 to i64
  %11 = ptrtoint ptr %9 to i64
  %12 = sub i64 %10, %11
  %13 = sdiv exact i64 %12, 8
  ret i64 %13
}

; Function Attrs: mustprogress nounwind uwtable
define linkonce_odr hidden noundef nonnull align 8 dereferenceable(24) ptr @_ZNSt6vectorIS_IPvSaIS0_EESaIS2_EEixEm(ptr noundef nonnull align 8 dereferenceable(24) %0, i64 noundef %1) #7 comdat align 2 {
  %3 = alloca ptr, align 8
  %4 = alloca i64, align 8
  store ptr %0, ptr %3, align 8, !tbaa !42
  store i64 %1, ptr %4, align 8, !tbaa !46
  %5 = load ptr, ptr %3, align 8
  %6 = getelementptr inbounds nuw %"struct.std::_Vector_base", ptr %5, i32 0, i32 0
  %7 = getelementptr inbounds nuw %"struct.std::_Vector_base<std::vector<void *>, std::allocator<std::vector<void *>>>::_Vector_impl_data", ptr %6, i32 0, i32 0
  %8 = load ptr, ptr %7, align 8, !tbaa !47
  %9 = load i64, ptr %4, align 8, !tbaa !46
  %10 = getelementptr inbounds nuw %"class.std::vector.8", ptr %8, i64 %9
  ret ptr %10
}

; Function Attrs: mustprogress nounwind uwtable
define linkonce_odr hidden noundef i64 @_ZNKSt6vectorIS_IPvSaIS0_EESaIS2_EE4sizeEv(ptr noundef nonnull align 8 dereferenceable(24) %0) #7 comdat align 2 {
  %2 = alloca ptr, align 8
  store ptr %0, ptr %2, align 8, !tbaa !42
  %3 = load ptr, ptr %2, align 8
  %4 = getelementptr inbounds nuw %"struct.std::_Vector_base", ptr %3, i32 0, i32 0
  %5 = getelementptr inbounds nuw %"struct.std::_Vector_base<std::vector<void *>, std::allocator<std::vector<void *>>>::_Vector_impl_data", ptr %4, i32 0, i32 1
  %6 = load ptr, ptr %5, align 8, !tbaa !50
  %7 = getelementptr inbounds nuw %"struct.std::_Vector_base", ptr %3, i32 0, i32 0
  %8 = getelementptr inbounds nuw %"struct.std::_Vector_base<std::vector<void *>, std::allocator<std::vector<void *>>>::_Vector_impl_data", ptr %7, i32 0, i32 0
  %9 = load ptr, ptr %8, align 8, !tbaa !47
  %10 = ptrtoint ptr %6 to i64
  %11 = ptrtoint ptr %9 to i64
  %12 = sub i64 %10, %11
  %13 = sdiv exact i64 %12, 24
  ret i64 %13
}

; Function Attrs: inlinehint mustprogress uwtable
define internal noundef i32 @_ZL7cvRoundd(double noundef %0) #10 {
  %2 = alloca double, align 8
  %3 = alloca <2 x double>, align 16
  store double %0, ptr %2, align 8, !tbaa !62
  call void @llvm.lifetime.start.p0(i64 16, ptr %3) #3
  %4 = load double, ptr %2, align 8, !tbaa !62
  %5 = call noundef <2 x double> @_ZL10_mm_set_sdd(double noundef %4)
  store <2 x double> %5, ptr %3, align 16, !tbaa !64
  %6 = load <2 x double>, ptr %3, align 16, !tbaa !64
  %7 = call noundef i32 @_ZL14_mm_cvtsd_si32Dv2_d(<2 x double> noundef %6)
  call void @llvm.lifetime.end.p0(i64 16, ptr %3) #3
  ret i32 %7
}

; Function Attrs: inlinehint mustprogress uwtable
define linkonce_odr hidden noundef double @_ZN6cvtest8randRealERN2cv3RNGE(ptr noundef nonnull align 8 dereferenceable(8) %0) #11 comdat {
  %2 = alloca ptr, align 8
  store ptr %0, ptr %2, align 8, !tbaa !80
  %3 = load ptr, ptr %2, align 8, !tbaa !80
  %4 = call noundef double @_ZN2cv3RNGcvdEv(ptr noundef nonnull align 8 dereferenceable(8) %3)
  ret double %4
}

; Function Attrs: inlinehint mustprogress nounwind uwtable
define linkonce_odr hidden void @_ZN2cv5Size_IiEC2Ev(ptr noundef nonnull align 4 dereferenceable(8) %0) unnamed_addr #4 comdat align 2 {
  %2 = alloca ptr, align 8
  store ptr %0, ptr %2, align 8, !tbaa !3
  %3 = load ptr, ptr %2, align 8
  %4 = getelementptr inbounds nuw %"class.cv::Size_", ptr %3, i32 0, i32 0
  store i32 0, ptr %4, align 4, !tbaa !10
  %5 = getelementptr inbounds nuw %"class.cv::Size_", ptr %3, i32 0, i32 1
  store i32 0, ptr %5, align 4, !tbaa !12
  ret void
}

; Function Attrs: mustprogress uwtable
define linkonce_odr hidden noundef nonnull align 8 dereferenceable(8) ptr @_ZN6cvtest2TS7get_rngEv(ptr noundef nonnull align 8 dereferenceable(280) %0) #6 comdat align 2 {
  %2 = alloca ptr, align 8
  store ptr %0, ptr %2, align 8, !tbaa !65
  %3 = call noundef nonnull align 8 dereferenceable(8) ptr @_ZN2cv6theRNGEv()
  ret ptr %3
}

; Function Attrs: mustprogress uwtable
define hidden void @_ZN6cvtest9ArrayTest30get_test_array_types_and_sizesEiRSt6vectorIS1_IN2cv5Size_IiEESaIS4_EESaIS6_EERS1_IS1_IiSaIiEESaISB_EE(ptr noundef nonnull align 8 dereferenceable(136) %0, i32 noundef %1, ptr noundef nonnull align 8 dereferenceable(24) %2, ptr noundef nonnull align 8 dereferenceable(24) %3) unnamed_addr #6 align 2 {
  %5 = alloca ptr, align 8
  %6 = alloca i32, align 4
  %7 = alloca ptr, align 8
  %8 = alloca ptr, align 8
  %9 = alloca ptr, align 8
  %10 = alloca %"class.cv::Size_", align 4
  %11 = alloca double, align 8
  %12 = alloca i64, align 8
  %13 = alloca i64, align 8
  %14 = alloca i64, align 8
  store ptr %0, ptr %5, align 8, !tbaa !13
  store i32 %1, ptr %6, align 4, !tbaa !8
  store ptr %2, ptr %7, align 8, !tbaa !76
  store ptr %3, ptr %8, align 8, !tbaa !78
  %15 = load ptr, ptr %5, align 8
  call void @llvm.lifetime.start.p0(i64 8, ptr %9) #3
  %16 = getelementptr inbounds nuw %"class.cvtest::BaseTest", ptr %15, i32 0, i32 3
  %17 = load ptr, ptr %16, align 8, !tbaa !61
  %18 = call noundef nonnull align 8 dereferenceable(8) ptr @_ZN6cvtest2TS7get_rngEv(ptr noundef nonnull align 8 dereferenceable(280) %17)
  store ptr %18, ptr %9, align 8, !tbaa !80
  call void @llvm.lifetime.start.p0(i64 8, ptr %10) #3
  call void @_ZN2cv5Size_IiEC2Ev(ptr noundef nonnull align 4 dereferenceable(8) %10)
  call void @llvm.lifetime.start.p0(i64 8, ptr %11) #3
  call void @llvm.lifetime.start.p0(i64 8, ptr %12) #3
  call void @llvm.lifetime.start.p0(i64 8, ptr %13) #3
  %19 = load ptr, ptr %9, align 8, !tbaa !80
  %20 = call noundef double @_ZN6cvtest8randRealERN2cv3RNGE(ptr noundef nonnull align 8 dereferenceable(8) %19)
  %21 = getelementptr inbounds nuw %"class.cvtest::ArrayTest", ptr %15, i32 0, i32 6
  %22 = load i32, ptr %21, align 8, !tbaa !40
  %23 = getelementptr inbounds nuw %"class.cvtest::ArrayTest", ptr %15, i32 0, i32 5
  %24 = load i32, ptr %23, align 4, !tbaa !39
  %25 = sub nsw i32 %22, %24
  %26 = sitofp i32 %25 to double
  %27 = getelementptr inbounds nuw %"class.cvtest::ArrayTest", ptr %15, i32 0, i32 5
  %28 = load i32, ptr %27, align 4, !tbaa !39
  %29 = sitofp i32 %28 to double
  %30 = call double @llvm.fmuladd.f64(double %20, double %26, double %29)
  store double %30, ptr %11, align 8, !tbaa !62
  %31 = load double, ptr %11, align 8, !tbaa !62
  %32 = fmul double %31, 0x3FE62E42FEFA39EF
  %33 = call double @exp(double noundef %32) #3, !tbaa !8
  %34 = call noundef i32 @_ZL7cvRoundd(double noundef %33)
  %35 = getelementptr inbounds nuw %"class.cv::Size_", ptr %10, i32 0, i32 0
  store i32 %34, ptr %35, align 4, !tbaa !10
  %36 = load ptr, ptr %9, align 8, !tbaa !80
  %37 = call noundef double @_ZN6cvtest8randRealERN2cv3RNGE(ptr noundef nonnull align 8 dereferenceable(8) %36)
  %38 = getelementptr inbounds nuw %"class.cvtest::ArrayTest", ptr %15, i32 0, i32 6
  %39 = load i32, ptr %38, align 8, !tbaa !40
  %40 = getelementptr inbounds nuw %"class.cvtest::ArrayTest", ptr %15, i32 0, i32 5
  %41 = load i32, ptr %40, align 4, !tbaa !39
  %42 = sub nsw i32 %39, %41
  %43 = sitofp i32 %42 to double
  %44 = getelementptr inbounds nuw %"class.cvtest::ArrayTest", ptr %15, i32 0, i32 5
  %45 = load i32, ptr %44, align 4, !tbaa !39
  %46 = sitofp i32 %45 to double
  %47 = call double @llvm.fmuladd.f64(double %37, double %43, double %46)
  store double %47, ptr %11, align 8, !tbaa !62
  %48 = load double, ptr %11, align 8, !tbaa !62
  %49 = fmul double %48, 0x3FE62E42FEFA39EF
  %50 = call double @exp(double noundef %49) #3, !tbaa !8
  %51 = call noundef i32 @_ZL7cvRoundd(double noundef %50)
  %52 = getelementptr inbounds nuw %"class.cv::Size_", ptr %10, i32 0, i32 1
  store i32 %51, ptr %52, align 4, !tbaa !12
  store i64 0, ptr %12, align 8, !tbaa !46
  br label %53

53:                                               ; preds = %82, %4
  %54 = load i64, ptr %12, align 8, !tbaa !46
  %55 = getelementptr inbounds nuw %"class.cvtest::ArrayTest", ptr %15, i32 0, i32 7
  %56 = call noundef i64 @_ZNKSt6vectorIS_IPvSaIS0_EESaIS2_EE4sizeEv(ptr noundef nonnull align 8 dereferenceable(24) %55) #3
  %57 = icmp ult i64 %54, %56
  br i1 %57, label %58, label %85

58:                                               ; preds = %53
  call void @llvm.lifetime.start.p0(i64 8, ptr %14) #3
  %59 = getelementptr inbounds nuw %"class.cvtest::ArrayTest", ptr %15, i32 0, i32 7
  %60 = load i64, ptr %12, align 8, !tbaa !46
  %61 = call noundef nonnull align 8 dereferenceable(24) ptr @_ZNSt6vectorIS_IPvSaIS0_EESaIS2_EEixEm(ptr noundef nonnull align 8 dereferenceable(24) %59, i64 noundef %60) #3
  %62 = call noundef i64 @_ZNKSt6vectorIPvSaIS0_EE4sizeEv(ptr noundef nonnull align 8 dereferenceable(24) %61) #3
  store i64 %62, ptr %14, align 8, !tbaa !46
  store i64 0, ptr %13, align 8, !tbaa !46
  br label %63

63:                                               ; preds = %78, %58
  %64 = load i64, ptr %13, align 8, !tbaa !46
  %65 = load i64, ptr %14, align 8, !tbaa !46
  %66 = icmp ult i64 %64, %65
  br i1 %66, label %67, label %81

67:                                               ; preds = %63
  %68 = load ptr, ptr %7, align 8, !tbaa !76
  %69 = load i64, ptr %12, align 8, !tbaa !46
  %70 = call noundef nonnull align 8 dereferenceable(24) ptr @_ZNSt6vectorIS_IN2cv5Size_IiEESaIS2_EESaIS4_EEixEm(ptr noundef nonnull align 8 dereferenceable(24) %68, i64 noundef %69) #3
  %71 = load i64, ptr %13, align 8, !tbaa !46
  %72 = call noundef nonnull align 4 dereferenceable(8) ptr @_ZNSt6vectorIN2cv5Size_IiEESaIS2_EEixEm(ptr noundef nonnull align 8 dereferenceable(24) %70, i64 noundef %71) #3
  call void @llvm.memcpy.p0.p0.i64(ptr align 4 %72, ptr align 4 %10, i64 8, i1 false), !tbaa.struct !82
  %73 = load ptr, ptr %8, align 8, !tbaa !78
  %74 = load i64, ptr %12, align 8, !tbaa !46
  %75 = call noundef nonnull align 8 dereferenceable(24) ptr @_ZNSt6vectorIS_IiSaIiEESaIS1_EEixEm(ptr noundef nonnull align 8 dereferenceable(24) %73, i64 noundef %74) #3
  %76 = load i64, ptr %13, align 8, !tbaa !46
  %77 = call noundef nonnull align 4 dereferenceable(4) ptr @_ZNSt6vectorIiSaIiEEixEm(ptr noundef nonnull align 8 dereferenceable(24) %75, i64 noundef %76) #3
  store i32 0, ptr %77, align 4, !tbaa !8
  br label %78

78:                                               ; preds = %67
  %79 = load i64, ptr %13, align 8, !tbaa !46
  %80 = add i64 %79, 1
  store i64 %80, ptr %13, align 8, !tbaa !46
  br label %63, !llvm.loop !83

81:                                               ; preds = %63
  call void @llvm.lifetime.end.p0(i64 8, ptr %14) #3
  br label %82

82:                                               ; preds = %81
  %83 = load i64, ptr %12, align 8, !tbaa !46
  %84 = add i64 %83, 1
  store i64 %84, ptr %12, align 8, !tbaa !46
  br label %53, !llvm.loop !84

85:                                               ; preds = %53
  call void @llvm.lifetime.end.p0(i64 8, ptr %13) #3
  call void @llvm.lifetime.end.p0(i64 8, ptr %12) #3
  call void @llvm.lifetime.end.p0(i64 8, ptr %11) #3
  call void @llvm.lifetime.end.p0(i64 8, ptr %10) #3
  call void @llvm.lifetime.end.p0(i64 8, ptr %9) #3
  ret void
}