; Function Attrs: mustprogress uwtable
define hidden void @_ZN6cvtest9ArrayTest30get_test_array_types_and_sizesEiRSt6vectorIS1_IN2cv5Size_IiEESaIS4_EESaIS6_EERS1_IS1_IiSaIiEESaISB_EE(ptr noundef nonnull readonly align 8 captures(none) dereferenceable(136) %0, i32 %1, ptr noundef nonnull readonly align 8 captures(none) dereferenceable(24) %2, ptr noundef nonnull readonly align 8 captures(none) dereferenceable(24) %3) unnamed_addr #9 align 2 {
  %5 = tail call noundef nonnull align 8 dereferenceable(8) ptr @_ZN2cv6theRNGEv()
  %6 = load i64, ptr %5, align 8, !tbaa !64
  %7 = and i64 %6, 4294967295
  %8 = mul nuw i64 %7, 4164903690
  %9 = lshr i64 %6, 32
  %10 = add nuw i64 %8, %9
  %11 = shl i64 %10, 32
  %12 = and i64 %10, 4294967295
  %13 = mul nuw i64 %12, 4164903690
  %14 = lshr i64 %10, 32
  %15 = add nuw i64 %13, %14
  %16 = and i64 %15, 4294967295
  %17 = or disjoint i64 %16, %11
  %18 = uitofp i64 %17 to double
  %19 = fmul double %18, 0x3BF0000000000000
  %20 = getelementptr inbounds nuw i8, ptr %0, i64 64
  %21 = load i32, ptr %20, align 8, !tbaa !32
  %22 = getelementptr inbounds nuw i8, ptr %0, i64 60
  %23 = load i32, ptr %22, align 4, !tbaa !31
  %24 = sub nsw i32 %21, %23
  %25 = sitofp i32 %24 to double
  %26 = sitofp i32 %23 to double
  %27 = tail call double @llvm.fmuladd.f64(double %19, double %25, double %26)
  %28 = fmul double %27, 0x3FE62E42FEFA39EF
  %29 = tail call double @exp(double noundef %28) #22, !tbaa !66
  %30 = mul nuw i64 %16, 4164903690
  %31 = lshr i64 %15, 32
  %32 = add nuw i64 %30, %31
  %33 = shl i64 %32, 32
  %34 = and i64 %32, 4294967295
  %35 = mul nuw i64 %34, 4164903690
  %36 = lshr i64 %32, 32
  %37 = add nuw i64 %35, %36
  store i64 %37, ptr %5, align 8, !tbaa !64
  %38 = and i64 %37, 4294967295
  %39 = or disjoint i64 %38, %33
  %40 = uitofp i64 %39 to double
  %41 = fmul double %40, 0x3BF0000000000000
  %42 = load i32, ptr %20, align 8, !tbaa !32
  %43 = load i32, ptr %22, align 4, !tbaa !31
  %44 = sub nsw i32 %42, %43
  %45 = sitofp i32 %44 to double
  %46 = sitofp i32 %43 to double
  %47 = tail call double @llvm.fmuladd.f64(double %41, double %45, double %46)
  %48 = fmul double %47, 0x3FE62E42FEFA39EF
  %49 = tail call double @exp(double noundef %48) #22, !tbaa !66
  %50 = getelementptr inbounds nuw i8, ptr %0, i64 72
  %51 = getelementptr inbounds nuw i8, ptr %0, i64 80
  %52 = load ptr, ptr %51, align 8, !tbaa !44
  %53 = load ptr, ptr %50, align 8, !tbaa !43
  %.not = icmp eq ptr %52, %53
  br i1 %.not, label %._crit_edge21, label %.lr.ph20

.lr.ph20:                                         ; preds = %4
  %54 = insertelement <2 x double> poison, double %49, i64 0
  %55 = tail call noundef i32 @llvm.x86.sse2.cvtsd2si(<2 x double> %54)
  %56 = insertelement <2 x double> poison, double %29, i64 0
  %57 = tail call noundef i32 @llvm.x86.sse2.cvtsd2si(<2 x double> %56)
  %.sroa.5.0.insert.ext = zext i32 %55 to i64
  %.sroa.5.0.insert.shift = shl nuw i64 %.sroa.5.0.insert.ext, 32
  %.sroa.0.0.insert.ext = zext i32 %57 to i64
  %.sroa.0.0.insert.insert = or disjoint i64 %.sroa.5.0.insert.shift, %.sroa.0.0.insert.ext
  br label %58

58:                                               ; preds = %.lr.ph20, %._crit_edge
  %59 = phi ptr [ %53, %.lr.ph20 ], [ %78, %._crit_edge ]
  %60 = phi ptr [ %52, %.lr.ph20 ], [ %79, %._crit_edge ]
  %.018 = phi i64 [ 0, %.lr.ph20 ], [ %80, %._crit_edge ]
  %61 = getelementptr inbounds nuw %"class.std::vector.8", ptr %59, i64 %.018
  %62 = getelementptr inbounds nuw i8, ptr %61, i64 8
  %63 = load ptr, ptr %62, align 8, !tbaa !49
  %64 = load ptr, ptr %61, align 8, !tbaa !45
  %.not22 = icmp eq ptr %63, %64
  br i1 %.not22, label %._crit_edge, label %.lr.ph.preheader

.lr.ph.preheader:                                 ; preds = %58
  %65 = ptrtoint ptr %63 to i64
  %66 = ptrtoint ptr %64 to i64
  %67 = sub i64 %65, %66
  %68 = ashr exact i64 %67, 3
  %umax = tail call i64 @llvm.umax.i64(i64 %68, i64 1)
  br label %.lr.ph

.lr.ph:                                           ; preds = %.lr.ph.preheader, %.lr.ph
  %.01617 = phi i64 [ %77, %.lr.ph ], [ 0, %.lr.ph.preheader ]
  %69 = load ptr, ptr %2, align 8, !tbaa !67
  %70 = getelementptr inbounds nuw %"class.std::vector.23", ptr %69, i64 %.018
  %71 = load ptr, ptr %70, align 8, !tbaa !70
  %72 = getelementptr inbounds nuw %"class.cv::Size_", ptr %71, i64 %.01617
  store i64 %.sroa.0.0.insert.insert, ptr %72, align 4
  %73 = load ptr, ptr %3, align 8, !tbaa !73
  %74 = getelementptr inbounds nuw %"class.std::vector.33", ptr %73, i64 %.018
  %75 = load ptr, ptr %74, align 8, !tbaa !76
  %76 = getelementptr inbounds nuw i32, ptr %75, i64 %.01617
  store i32 0, ptr %76, align 4, !tbaa !66
  %77 = add nuw i64 %.01617, 1
  %exitcond.not = icmp eq i64 %77, %umax
  br i1 %exitcond.not, label %._crit_edge.loopexit, label %.lr.ph, !llvm.loop !79

._crit_edge.loopexit:                             ; preds = %.lr.ph
  %.pre = load ptr, ptr %51, align 8, !tbaa !44
  %.pre23 = load ptr, ptr %50, align 8, !tbaa !43
  br label %._crit_edge

._crit_edge:                                      ; preds = %._crit_edge.loopexit, %58
  %78 = phi ptr [ %.pre23, %._crit_edge.loopexit ], [ %59, %58 ]
  %79 = phi ptr [ %.pre, %._crit_edge.loopexit ], [ %60, %58 ]
  %80 = add nuw i64 %.018, 1
  %81 = ptrtoint ptr %79 to i64
  %82 = ptrtoint ptr %78 to i64
  %83 = sub i64 %81, %82
  %84 = sdiv exact i64 %83, 24
  %85 = icmp ult i64 %80, %84
  br i1 %85, label %58, label %._crit_edge21, !llvm.loop !80

._crit_edge21:                                    ; preds = %._crit_edge, %4
  ret void
}